target datalayout = "e-m:e-p270:32:32-p271:32:32-p272:64:64-i64:64-i128:128-f80:128-n8:16:32:64-S128"
target triple = "x86_64-pc-linux-gnu"

; Function Attrs: nounwind uwtable
define i32 @wc_SignatureGetSize(i32 noundef %0, ptr noundef %1, i32 noundef %2) #0 {
  %4 = alloca i32, align 4
  %5 = alloca ptr, align 8
  %6 = alloca i32, align 4
  %7 = alloca i32, align 4
  store i32 %0, ptr %4, align 4, !tbaa !3
  store ptr %1, ptr %5, align 8, !tbaa !7
  store i32 %2, ptr %6, align 4, !tbaa !3
  call void @llvm.lifetime.start.p0(i64 4, ptr %7) #6
  store i32 -173, ptr %7, align 4, !tbaa !3
  %8 = load i32, ptr %4, align 4, !tbaa !3
  switch i32 %8, label %34 [
    i32 1, label %9
    i32 3, label %21
    i32 2, label %21
    i32 0, label %33
  ]

9:                                                ; preds = %3
  %10 = load i32, ptr %6, align 4, !tbaa !3
  %11 = zext i32 %10 to i64
  %12 = icmp uge i64 %11, 4208
  br i1 %12, label %13, label %16

13:                                               ; preds = %9
  %14 = load ptr, ptr %5, align 8, !tbaa !7
  %15 = call i32 @wc_ecc_sig_size(ptr noundef %14)
  store i32 %15, ptr %7, align 4, !tbaa !3
  br label %20

16:                                               ; preds = %9
  br label %17

17:                                               ; preds = %16
  br label %18

18:                                               ; preds = %17
  br label %19

19:                                               ; preds = %18
  br label %20

20:                                               ; preds = %19, %13
  br label %35

21:                                               ; preds = %3, %3
  %22 = load i32, ptr %6, align 4, !tbaa !3
  %23 = zext i32 %22 to i64
  %24 = icmp uge i64 %23, 8368
  br i1 %24, label %25, label %28

25:                                               ; preds = %21
  %26 = load ptr, ptr %5, align 8, !tbaa !7
  %27 = call i32 @wc_RsaEncryptSize(ptr noundef %26)
  store i32 %27, ptr %7, align 4, !tbaa !3
  br label %32

28:                                               ; preds = %21
  br label %29

29:                                               ; preds = %28
  br label %30

30:                                               ; preds = %29
  br label %31

31:                                               ; preds = %30
  br label %32

32:                                               ; preds = %31, %25
  br label %35

33:                                               ; preds = %3
  br label %34

34:                                               ; preds = %3, %33
  store i32 -173, ptr %7, align 4, !tbaa !3
  br label %35

35:                                               ; preds = %34, %32, %20
  %36 = load i32, ptr %7, align 4, !tbaa !3
  call void @llvm.lifetime.end.p0(i64 4, ptr %7) #6
  ret i32 %36
}

; Function Attrs: nounwind uwtable
define i32 @wc_SignatureGenerate_ex(i32 noundef %0, i32 noundef %1, ptr noundef %2, i32 noundef %3, ptr noundef %4, ptr noundef %5, ptr noundef %6, i32 noundef %7, ptr noundef %8, i32 noundef %9) #0 {
  %11 = alloca i32, align 4
  %12 = alloca i32, align 4
  %13 = alloca i32, align 4
  %14 = alloca ptr, align 8
  %15 = alloca i32, align 4
  %16 = alloca ptr, align 8
  %17 = alloca ptr, align 8
  %18 = alloca ptr, align 8
  %19 = alloca i32, align 4
  %20 = alloca ptr, align 8
  %21 = alloca i32, align 4
  %22 = alloca i32, align 4
  %23 = alloca i32, align 4
  %24 = alloca i32, align 4
  %25 = alloca [100 x i8], align 16
  %26 = alloca i32, align 4
  store i32 %0, ptr %12, align 4, !tbaa !3
  store i32 %1, ptr %13, align 4, !tbaa !3
  store ptr %2, ptr %14, align 8, !tbaa !9
  store i32 %3, ptr %15, align 4, !tbaa !3
  store ptr %4, ptr %16, align 8, !tbaa !9
  store ptr %5, ptr %17, align 8, !tbaa !14
  store ptr %6, ptr %18, align 8, !tbaa !7
  store i32 %7, ptr %19, align 4, !tbaa !3
  store ptr %8, ptr %20, align 8, !tbaa !16
  store i32 %9, ptr %21, align 4, !tbaa !3
  call void @llvm.lifetime.start.p0(i64 4, ptr %22) #6
  call void @llvm.lifetime.start.p0(i64 4, ptr %23) #6
  call void @llvm.lifetime.start.p0(i64 4, ptr %24) #6
  call void @llvm.lifetime.start.p0(i64 100, ptr %25) #6
  %27 = load ptr, ptr %14, align 8, !tbaa !9
  %28 = icmp eq ptr %27, null
  br i1 %28, label %48, label %29

29:                                               ; preds = %10
  %30 = load i32, ptr %15, align 4, !tbaa !3
  %31 = icmp eq i32 %30, 0
  br i1 %31, label %48, label %32

32:                                               ; preds = %29
  %33 = load ptr, ptr %16, align 8, !tbaa !9
  %34 = icmp eq ptr %33, null
  br i1 %34, label %48, label %35

35:                                               ; preds = %32
  %36 = load ptr, ptr %17, align 8, !tbaa !14
  %37 = icmp eq ptr %36, null
  br i1 %37, label %48, label %38

38:                                               ; preds = %35
  %39 = load ptr, ptr %17, align 8, !tbaa !14
  %40 = load i32, ptr %39, align 4, !tbaa !3
  %41 = icmp eq i32 %40, 0
  br i1 %41, label %48, label %42

42:                                               ; preds = %38
  %43 = load ptr, ptr %18, align 8, !tbaa !7
  %44 = icmp eq ptr %43, null
  br i1 %44, label %48, label %45

45:                                               ; preds = %42
  %46 = load i32, ptr %19, align 4, !tbaa !3
  %47 = icmp eq i32 %46, 0
  br i1 %47, label %48, label %49

48:                                               ; preds = %45, %42, %38, %35, %32, %29, %10
  store i32 -173, ptr %11, align 4
  store i32 1, ptr %26, align 4
  br label %113

49:                                               ; preds = %45
  %50 = load ptr, ptr %17, align 8, !tbaa !14
  %51 = load i32, ptr %50, align 4, !tbaa !3
  %52 = load i32, ptr %13, align 4, !tbaa !3
  %53 = load ptr, ptr %18, align 8, !tbaa !7
  %54 = load i32, ptr %19, align 4, !tbaa !3
  %55 = call i32 @wc_SignatureGetSize(i32 noundef %52, ptr noundef %53, i32 noundef %54)
  %56 = icmp slt i32 %51, %55
  br i1 %56, label %57, label %61

57:                                               ; preds = %49
  br label %58

58:                                               ; preds = %57
  br label %59

59:                                               ; preds = %58
  br label %60

60:                                               ; preds = %59
  store i32 -173, ptr %11, align 4
  store i32 1, ptr %26, align 4
  br label %113

61:                                               ; preds = %49
  %62 = load i32, ptr %12, align 4, !tbaa !3
  %63 = call i32 @wc_HashGetDigestSize(i32 noundef %62)
  store i32 %63, ptr %22, align 4, !tbaa !3
  %64 = load i32, ptr %22, align 4, !tbaa !3
  %65 = icmp slt i32 %64, 0
  br i1 %65, label %66, label %71

66:                                               ; preds = %61
  br label %67

67:                                               ; preds = %66
  br label %68

68:                                               ; preds = %67
  br label %69

69:                                               ; preds = %68
  %70 = load i32, ptr %22, align 4, !tbaa !3
  store i32 %70, ptr %11, align 4
  store i32 1, ptr %26, align 4
  br label %113

71:                                               ; preds = %61
  %72 = load i32, ptr %22, align 4, !tbaa !3
  store i32 %72, ptr %23, align 4, !tbaa !3
  store i32 %72, ptr %24, align 4, !tbaa !3
  %73 = load i32, ptr %13, align 4, !tbaa !3
  %74 = icmp eq i32 %73, 3
  br i1 %74, label %75, label %78

75:                                               ; preds = %71
  %76 = load i32, ptr %24, align 4, !tbaa !3
  %77 = add i32 %76, 36
  store i32 %77, ptr %24, align 4, !tbaa !3
  br label %78

78:                                               ; preds = %75, %71
  %79 = load i32, ptr %12, align 4, !tbaa !3
  %80 = load ptr, ptr %14, align 8, !tbaa !9
  %81 = load i32, ptr %15, align 4, !tbaa !3
  %82 = getelementptr inbounds [100 x i8], ptr %25, i64 0, i64 0
  %83 = load i32, ptr %23, align 4, !tbaa !3
  %84 = call i32 @wc_Hash(i32 noundef %79, ptr noundef %80, i32 noundef %81, ptr noundef %82, i32 noundef %83)
  store i32 %84, ptr %22, align 4, !tbaa !3
  %85 = load i32, ptr %22, align 4, !tbaa !3
  %86 = icmp eq i32 %85, 0
  br i1 %86, label %87, label %111

87:                                               ; preds = %78
  %88 = load i32, ptr %13, align 4, !tbaa !3
  %89 = icmp eq i32 %88, 3
  br i1 %89, label %90, label %95

90:                                               ; preds = %87
  %91 = load i32, ptr %12, align 4, !tbaa !3
  %92 = getelementptr inbounds [100 x i8], ptr %25, i64 0, i64 0
  %93 = load i32, ptr %23, align 4, !tbaa !3
  %94 = call i32 @wc_SignatureDerEncode(i32 noundef %91, ptr noundef %92, i32 noundef %93, ptr noundef %24)
  store i32 %94, ptr %22, align 4, !tbaa !3
  br label %95

95:                                               ; preds = %90, %87
  %96 = load i32, ptr %22, align 4, !tbaa !3
  %97 = icmp eq i32 %96, 0
  br i1 %97, label %98, label %110

98:                                               ; preds = %95
  %99 = load i32, ptr %12, align 4, !tbaa !3
  %100 = load i32, ptr %13, align 4, !tbaa !3
  %101 = getelementptr inbounds [100 x i8], ptr %25, i64 0, i64 0
  %102 = load i32, ptr %24, align 4, !tbaa !3
  %103 = load ptr, ptr %16, align 8, !tbaa !9
  %104 = load ptr, ptr %17, align 8, !tbaa !14
  %105 = load ptr, ptr %18, align 8, !tbaa !7
  %106 = load i32, ptr %19, align 4, !tbaa !3
  %107 = load ptr, ptr %20, align 8, !tbaa !16
  %108 = load i32, ptr %21, align 4, !tbaa !3
  %109 = call i32 @wc_SignatureGenerateHash_ex(i32 noundef %99, i32 noundef %100, ptr noundef %101, i32 noundef %102, ptr noundef %103, ptr noundef %104, ptr noundef %105, i32 noundef %106, ptr noundef %107, i32 noundef %108)
  store i32 %109, ptr %22, align 4, !tbaa !3
  br label %110

110:                                              ; preds = %98, %95
  br label %111

111:                                              ; preds = %110, %78
  %112 = load i32, ptr %22, align 4, !tbaa !3
  store i32 %112, ptr %11, align 4
  store i32 1, ptr %26, align 4
  br label %113

113:                                              ; preds = %111, %69, %60, %48
  call void @llvm.lifetime.end.p0(i64 100, ptr %25) #6
  call void @llvm.lifetime.end.p0(i64 4, ptr %24) #6
  call void @llvm.lifetime.end.p0(i64 4, ptr %23) #6
  call void @llvm.lifetime.end.p0(i64 4, ptr %22) #6
  %114 = load i32, ptr %11, align 4
  ret i32 %114
}