; Function Attrs: nounwind uwtable
define i32 @wc_SignatureGenerate_ex(i32 noundef %0, i32 noundef %1, ptr noundef %2, i32 noundef %3, ptr noundef %4, ptr noundef %5, ptr noundef %6, i32 noundef %7, ptr noundef %8, i32 noundef %9) local_unnamed_addr #0 {
  %11 = alloca i32, align 4
  %12 = alloca [100 x i8], align 16
  call void @llvm.lifetime.start.p0(i64 4, ptr nonnull %11) #7
  call void @llvm.lifetime.start.p0(i64 100, ptr nonnull %12) #7
  %13 = icmp eq ptr %2, null
  %14 = icmp eq i32 %3, 0
  %or.cond = or i1 %13, %14
  %15 = icmp eq ptr %4, null
  %or.cond3 = or i1 %or.cond, %15
  %16 = icmp eq ptr %5, null
  %or.cond5 = or i1 %or.cond3, %16
  br i1 %or.cond5, label %46, label %17

17:                                               ; preds = %10
  %18 = load i32, ptr %5, align 4, !tbaa !3
  %19 = icmp eq i32 %18, 0
  %20 = icmp eq ptr %6, null
  %or.cond7 = or i1 %20, %19
  %21 = icmp eq i32 %7, 0
  %or.cond9 = or i1 %21, %or.cond7
  br i1 %or.cond9, label %46, label %22

22:                                               ; preds = %17
  switch i32 %1, label %wc_SignatureGetSize.exit [
    i32 1, label %23
    i32 3, label %27
    i32 2, label %27
  ]

23:                                               ; preds = %22
  %24 = icmp ugt i32 %7, 4207
  br i1 %24, label %25, label %wc_SignatureGetSize.exit

25:                                               ; preds = %23
  %26 = tail call i32 @wc_ecc_sig_size(ptr noundef nonnull %6) #7
  br label %wc_SignatureGetSize.exit

27:                                               ; preds = %22, %22
  %28 = icmp ugt i32 %7, 8367
  br i1 %28, label %29, label %wc_SignatureGetSize.exit

29:                                               ; preds = %27
  %30 = tail call i32 @wc_RsaEncryptSize(ptr noundef nonnull %6) #7
  br label %wc_SignatureGetSize.exit

wc_SignatureGetSize.exit:                         ; preds = %22, %23, %25, %27, %29
  %.0.i = phi i32 [ %30, %29 ], [ -173, %27 ], [ %26, %25 ], [ -173, %23 ], [ -173, %22 ]
  %31 = icmp slt i32 %18, %.0.i
  br i1 %31, label %46, label %32

32:                                               ; preds = %wc_SignatureGetSize.exit
  %33 = tail call i32 @wc_HashGetDigestSize(i32 noundef %0) #7
  %34 = icmp slt i32 %33, 0
  br i1 %34, label %46, label %35

35:                                               ; preds = %32
  %36 = icmp eq i32 %1, 3
  %37 = add nuw i32 %33, 36
  %spec.select = select i1 %36, i32 %37, i32 %33
  store i32 %spec.select, ptr %11, align 4, !tbaa !3
  %38 = call i32 @wc_Hash(i32 noundef %0, ptr noundef nonnull %2, i32 noundef %3, ptr noundef nonnull %12, i32 noundef %33) #7
  %39 = icmp eq i32 %38, 0
  br i1 %39, label %40, label %46

40:                                               ; preds = %35
  br i1 %36, label %41, label %.thread

41:                                               ; preds = %40
  %42 = call fastcc i32 @wc_SignatureDerEncode(i32 noundef %0, ptr noundef %12, i32 noundef %33, ptr noundef %11)
  %43 = icmp eq i32 %42, 0
  br i1 %43, label %..thread_crit_edge, label %46

..thread_crit_edge:                               ; preds = %41
  %.pre = load i32, ptr %11, align 4, !tbaa !3
  br label %.thread

.thread:                                          ; preds = %..thread_crit_edge, %40
  %44 = phi i32 [ %.pre, %..thread_crit_edge ], [ %33, %40 ]
  %45 = call i32 @wc_SignatureGenerateHash_ex(i32 noundef %0, i32 noundef %1, ptr noundef nonnull %12, i32 noundef %44, ptr noundef nonnull %4, ptr noundef nonnull %5, ptr noundef nonnull %6, i32 noundef %7, ptr noundef %8, i32 noundef %9)
  br label %46

46:                                               ; preds = %35, %.thread, %41, %32, %wc_SignatureGetSize.exit, %10, %17
  %.0 = phi i32 [ -173, %17 ], [ -173, %10 ], [ -173, %wc_SignatureGetSize.exit ], [ %33, %32 ], [ %45, %.thread ], [ %42, %41 ], [ %38, %35 ]
  call void @llvm.lifetime.end.p0(i64 100, ptr nonnull %12) #7
  call void @llvm.lifetime.end.p0(i64 4, ptr nonnull %11) #7
  ret i32 %.0
}